target datalayout = "e-m:e-p270:32:32-p271:32:32-p272:64:64-i64:64-i128:128-f80:128-n8:16:32:64-S128"
target triple = "x86_64-unknown-linux-gnu"

%"class.node::crypto::NodeBIO" = type { %"class.node::MemoryRetainer", ptr, i64, i64, i64, i32, ptr, ptr }
%"class.node::MemoryRetainer" = type { ptr }

; Function Attrs: mustprogress nounwind uwtable
define linkonce_odr dso_local void @_ZN4node14MemoryRetainerC2Ev(ptr noundef nonnull align 8 dereferenceable(8) %this) unnamed_addr #4 comdat align 2 {
entry:
  %this.addr = alloca ptr, align 8
  store ptr %this, ptr %this.addr, align 8
  %this1 = load ptr, ptr %this.addr, align 8
  store ptr getelementptr inbounds ({ [10 x ptr] }, ptr @_ZTVN4node14MemoryRetainerE, i32 0, i32 0, i32 2), ptr %this1, align 8
  ret void
}

; Function Attrs: mustprogress nounwind uwtable
define linkonce_odr dso_local void @_ZN4node6crypto7NodeBIOC2Ev(ptr noundef nonnull align 8 dereferenceable(64) %this) unnamed_addr #4 comdat align 2 {
entry:
  %this.addr = alloca ptr, align 8
  store ptr %this, ptr %this.addr, align 8
  %this1 = load ptr, ptr %this.addr, align 8
  call void @_ZN4node14MemoryRetainerC2Ev(ptr noundef nonnull align 8 dereferenceable(8) %this1) #3
  store ptr getelementptr inbounds ({ [10 x ptr] }, ptr @_ZTVN4node6crypto7NodeBIOE, i32 0, i32 0, i32 2), ptr %this1, align 8
  %env_ = getelementptr inbounds %"class.node::crypto::NodeBIO", ptr %this1, i32 0, i32 1
  store ptr null, ptr %env_, align 8
  %initial_ = getelementptr inbounds %"class.node::crypto::NodeBIO", ptr %this1, i32 0, i32 2
  store i64 1024, ptr %initial_, align 8
  %length_ = getelementptr inbounds %"class.node::crypto::NodeBIO", ptr %this1, i32 0, i32 3
  store i64 0, ptr %length_, align 8
  %allocate_hint_ = getelementptr inbounds %"class.node::crypto::NodeBIO", ptr %this1, i32 0, i32 4
  store i64 0, ptr %allocate_hint_, align 8
  %eof_return_ = getelementptr inbounds %"class.node::crypto::NodeBIO", ptr %this1, i32 0, i32 5
  store i32 -1, ptr %eof_return_, align 8
  %read_head_ = getelementptr inbounds %"class.node::crypto::NodeBIO", ptr %this1, i32 0, i32 6
  store ptr null, ptr %read_head_, align 8
  %write_head_ = getelementptr inbounds %"class.node::crypto::NodeBIO", ptr %this1, i32 0, i32 7
  store ptr null, ptr %write_head_, align 8
  ret void
}

; Function Attrs: mustprogress nounwind uwtable
define dso_local noundef i32 @_ZN4node6crypto7NodeBIO3NewEP6bio_st(ptr noundef %bio) #4 align 2 {
entry:
  %bio.addr = alloca ptr, align 8
  store ptr %bio, ptr %bio.addr, align 8
  %0 = load ptr, ptr %bio.addr, align 8
  %call = call noalias noundef nonnull ptr @_Znwm(i64 noundef 64) #13
  call void @llvm.memset.p0.i64(ptr align 16 %call, i8 0, i64 64, i1 false)
  call void @_ZN4node6crypto7NodeBIOC2Ev(ptr noundef nonnull align 8 dereferenceable(64) %call) #3
  call void @BIO_set_data(ptr noundef %0, ptr noundef %call)
  %1 = load ptr, ptr %bio.addr, align 8
  call void @BIO_set_init(ptr noundef %1, i32 noundef 1)
  ret i32 1
}