; Function Attrs: mustprogress nounwind uwtable
define dso_local noundef i32 @_ZN4node6crypto7NodeBIO3NewEP6bio_st(ptr noundef %bio) #3 align 2 {
entry:
  %call = tail call noalias noundef nonnull dereferenceable(64) ptr @_Znwm(i64 noundef 64) #18
  %0 = getelementptr inbounds i8, ptr %call, i64 32
  tail call void @llvm.memset.p0.i64(ptr noundef nonnull align 16 dereferenceable(64) %0, i8 0, i64 16, i1 false)
  store ptr getelementptr inbounds ({ [10 x ptr] }, ptr @_ZTVN4node6crypto7NodeBIOE, i64 0, i32 0, i64 2), ptr %call, align 8
  %env_.i = getelementptr inbounds i8, ptr %call, i64 8
  store ptr null, ptr %env_.i, align 8
  %initial_.i = getelementptr inbounds i8, ptr %call, i64 16
  store i64 1024, ptr %initial_.i, align 8
  %length_.i = getelementptr inbounds i8, ptr %call, i64 24
  %eof_return_.i = getelementptr inbounds i8, ptr %call, i64 40
  tail call void @llvm.memset.p0.i64(ptr noundef nonnull align 8 dereferenceable(16) %length_.i, i8 0, i64 16, i1 false)
  store i32 -1, ptr %eof_return_.i, align 8
  %read_head_.i = getelementptr inbounds i8, ptr %call, i64 48
  tail call void @llvm.memset.p0.i64(ptr noundef nonnull align 8 dereferenceable(16) %read_head_.i, i8 0, i64 16, i1 false)
  tail call void @BIO_set_data(ptr noundef %bio, ptr noundef nonnull %call) #16
  tail call void @BIO_set_init(ptr noundef %bio, i32 noundef 1) #16
  ret i32 1
}